; Function Attrs: nounwind uwtable
define range(i32 0, 2) i32 @OSSL_DECODER_CTX_set_input_type(ptr noundef writeonly captures(address_is_null) %0, ptr noundef %1) local_unnamed_addr #0 {
  %.not = icmp eq ptr %0, null
  br i1 %.not, label %3, label %4, !prof !46

3:                                                ; preds = %2
  tail call void @ERR_new() #8
  tail call void @ERR_set_debug(ptr noundef nonnull @.str, i32 noundef 185, ptr noundef nonnull @__func__.OSSL_DECODER_CTX_set_input_type) #8
  tail call void (i32, i32, ptr, ...) @ERR_set_error(i32 noundef 60, i32 noundef 786690, ptr noundef null) #8
  br label %5

4:                                                ; preds = %2
  store ptr %1, ptr %0, align 8, !tbaa !18
  br label %5

5:                                                ; preds = %4, %3
  %.0 = phi i32 [ 1, %4 ], [ 0, %3 ]
  ret i32 %.0
}